target datalayout = "e-m:e-p270:32:32-p271:32:32-p272:64:64-i64:64-i128:128-f80:128-n8:16:32:64-S128"
target triple = "x86_64-pc-linux-gnu"

@keyctx = internal global ptr null, align 8
@.str.45 = private unnamed_addr constant [3 x i8] c"DH\00", align 1
@.str.48 = private unnamed_addr constant [9 x i8] c"X9.42 DH\00", align 1
@testpropq = internal global ptr null, align 8

; Function Attrs: nounwind uwtable
define internal ptr @make_template(ptr noundef %0, ptr noundef %1) #0 {
  %3 = alloca ptr, align 8
  %4 = alloca ptr, align 8
  %5 = alloca ptr, align 8
  %6 = alloca ptr, align 8
  %7 = alloca ptr, align 8
  %8 = alloca i32, align 4
  store ptr %0, ptr %4, align 8, !tbaa !4
  store ptr %1, ptr %5, align 8, !tbaa !21
  call void @llvm.lifetime.start.p0(i64 8, ptr %6) #7
  store ptr null, ptr %6, align 8, !tbaa !23
  call void @llvm.lifetime.start.p0(i64 8, ptr %7) #7
  store ptr null, ptr %7, align 8, !tbaa !25
  %9 = load ptr, ptr %4, align 8, !tbaa !4
  %10 = call i32 @strcmp(ptr noundef %9, ptr noundef @.str.45) #8
  %11 = icmp eq i32 %10, 0
  br i1 %11, label %12, label %15

12:                                               ; preds = %2
  %13 = load ptr, ptr @keyctx, align 8, !tbaa !13
  %14 = call ptr @get_dh512(ptr noundef %13)
  store ptr %14, ptr %3, align 8
  store i32 1, ptr %8, align 4
  br label %46

15:                                               ; preds = %2
  %16 = load ptr, ptr %4, align 8, !tbaa !4
  %17 = call i32 @strcmp(ptr noundef %16, ptr noundef @.str.48) #8
  %18 = icmp eq i32 %17, 0
  br i1 %18, label %19, label %22

19:                                               ; preds = %15
  %20 = load ptr, ptr @keyctx, align 8, !tbaa !13
  %21 = call ptr @get_dhx512(ptr noundef %20)
  store ptr %21, ptr %3, align 8
  store i32 1, ptr %8, align 4
  br label %46

22:                                               ; preds = %15
  %23 = load ptr, ptr @keyctx, align 8, !tbaa !13
  %24 = load ptr, ptr %4, align 8, !tbaa !4
  %25 = load ptr, ptr @testpropq, align 8, !tbaa !4
  %26 = call ptr @EVP_PKEY_CTX_new_from_name(ptr noundef %23, ptr noundef %24, ptr noundef %25)
  store ptr %26, ptr %7, align 8, !tbaa !25
  %27 = icmp ne ptr %26, null
  br i1 %27, label %28, label %43

28:                                               ; preds = %22
  %29 = load ptr, ptr %7, align 8, !tbaa !25
  %30 = call i32 @EVP_PKEY_paramgen_init(ptr noundef %29)
  %31 = icmp sgt i32 %30, 0
  br i1 %31, label %32, label %43

32:                                               ; preds = %28
  %33 = load ptr, ptr %5, align 8, !tbaa !21
  %34 = icmp eq ptr %33, null
  br i1 %34, label %40, label %35

35:                                               ; preds = %32
  %36 = load ptr, ptr %7, align 8, !tbaa !25
  %37 = load ptr, ptr %5, align 8, !tbaa !21
  %38 = call i32 @EVP_PKEY_CTX_set_params(ptr noundef %36, ptr noundef %37)
  %39 = icmp sgt i32 %38, 0
  br i1 %39, label %40, label %43

40:                                               ; preds = %35, %32
  %41 = load ptr, ptr %7, align 8, !tbaa !25
  %42 = call i32 @EVP_PKEY_generate(ptr noundef %41, ptr noundef %6)
  br label %43

43:                                               ; preds = %40, %35, %28, %22
  %44 = load ptr, ptr %7, align 8, !tbaa !25
  call void @EVP_PKEY_CTX_free(ptr noundef %44)
  %45 = load ptr, ptr %6, align 8, !tbaa !23
  store ptr %45, ptr %3, align 8
  store i32 1, ptr %8, align 4
  br label %46

46:                                               ; preds = %43, %19, %12
  call void @llvm.lifetime.end.p0(i64 8, ptr %7) #7
  call void @llvm.lifetime.end.p0(i64 8, ptr %6) #7
  %47 = load ptr, ptr %3, align 8
  ret ptr %47
}