; Function Attrs: nounwind uwtable
define internal fastcc ptr @make_template(ptr noundef %0, ptr noundef %1) unnamed_addr #1 {
sub_0:
  %2 = alloca ptr, align 8
  call void @llvm.lifetime.start.p0(i64 8, ptr nonnull %2) #8
  store ptr null, ptr %2, align 8, !tbaa !21
  %3 = load i8, ptr %0, align 1
  %.not12 = icmp eq i8 %3, 68
  br i1 %.not12, label %sub_1, label %.tail.thread

sub_1:                                            ; preds = %sub_0
  %4 = getelementptr inbounds nuw i8, ptr %0, i64 1
  %5 = load i8, ptr %4, align 1
  %.not13 = icmp eq i8 %5, 72
  br i1 %.not13, label %.tail, label %.tail.thread

.tail:                                            ; preds = %sub_1
  %6 = getelementptr inbounds nuw i8, ptr %0, i64 2
  %7 = load i8, ptr %6, align 1
  %8 = icmp eq i8 %7, 0
  br i1 %8, label %9, label %.tail.thread

9:                                                ; preds = %.tail
  %10 = load ptr, ptr @keyctx, align 8, !tbaa !10
  %11 = tail call ptr @get_dh512(ptr noundef %10) #8
  br label %31

.tail.thread:                                     ; preds = %sub_1, %sub_0, %.tail
  %12 = tail call i32 @strcmp(ptr noundef nonnull dereferenceable(1) %0, ptr noundef nonnull dereferenceable(9) @.str.48) #9
  %13 = icmp eq i32 %12, 0
  %14 = load ptr, ptr @keyctx, align 8, !tbaa !10
  br i1 %13, label %15, label %17

15:                                               ; preds = %.tail.thread
  %16 = tail call ptr @get_dhx512(ptr noundef %14) #8
  br label %31

17:                                               ; preds = %.tail.thread
  %18 = tail call ptr @EVP_PKEY_CTX_new_from_name(ptr noundef %14, ptr noundef nonnull %0, ptr noundef null) #8
  %.not = icmp eq ptr %18, null
  br i1 %.not, label %29, label %19

19:                                               ; preds = %17
  %20 = tail call i32 @EVP_PKEY_paramgen_init(ptr noundef nonnull %18) #8
  %21 = icmp sgt i32 %20, 0
  br i1 %21, label %22, label %29

22:                                               ; preds = %19
  %23 = icmp eq ptr %1, null
  br i1 %23, label %27, label %24

24:                                               ; preds = %22
  %25 = tail call i32 @EVP_PKEY_CTX_set_params(ptr noundef nonnull %18, ptr noundef nonnull %1) #8
  %26 = icmp sgt i32 %25, 0
  br i1 %26, label %27, label %29

27:                                               ; preds = %24, %22
  %28 = call i32 @EVP_PKEY_generate(ptr noundef nonnull %18, ptr noundef nonnull %2) #8
  br label %29

29:                                               ; preds = %27, %24, %19, %17
  call void @EVP_PKEY_CTX_free(ptr noundef %18) #8
  %30 = load ptr, ptr %2, align 8, !tbaa !21
  br label %31

31:                                               ; preds = %29, %15, %9
  %.0 = phi ptr [ %11, %9 ], [ %16, %15 ], [ %30, %29 ]
  call void @llvm.lifetime.end.p0(i64 8, ptr nonnull %2) #8
  ret ptr %.0
}